; Function Attrs: null_pointer_is_valid sspstrong uwtable
define internal noundef i32 @dissect_pfcp_enterprise_bbf_outer_header_removal(ptr noundef %0, ptr readnone captures(none) %1, ptr noundef %2, ptr readnone captures(none) %3) #0 {
  %5 = alloca i32, align 4
  call void @llvm.lifetime.start.p0(i64 4, ptr nonnull %5) #15
  %6 = load i32, ptr @hf_pfcp_bbf_out_hdr_desc, align 4
  %7 = call ptr @proto_tree_add_item_ret_uint(ptr noundef %2, i32 noundef %6, ptr noundef %0, i32 noundef 0, i32 noundef 1, i32 noundef 0, ptr noundef nonnull %5)
  %8 = call ptr @proto_tree_get_parent(ptr noundef %2)
  %9 = load i32, ptr %5, align 4
  %10 = call ptr @val_to_str_const(i32 noundef %9, ptr noundef nonnull @pfcp_bbf_out_hdr_desc_vals, ptr noundef nonnull @.str.2639)
  call void (ptr, ptr, ...) @proto_item_append_text(ptr noundef %8, ptr noundef nonnull @.str.2654, ptr noundef %10)
  call void @llvm.lifetime.end.p0(i64 4, ptr nonnull %5) #15
  ret i32 1
}